; ModuleID = '24/455.c'
source_filename = "24/455.c"
target datalayout = "e-m:e-p270:32:32-p271:32:32-p272:64:64-i64:64-f80:128-n8:16:32:64-S128"
target triple = "x86_64-pc-linux-gnu"

@.str = private unnamed_addr constant [4 x i8] c"%s\0A\00", align 1

; Function Attrs: noinline nounwind uwtable
define dso_local void @main() #0 {
  %1 = alloca i32, align 4
  %2 = alloca i32, align 4
  %3 = alloca i32, align 4
  %4 = alloca i32, align 4
  %5 = alloca i32, align 4
  %6 = alloca i32, align 4
  %7 = alloca i32, align 4
  %8 = alloca i32, align 4
  %9 = alloca [100 x [20 x i8]], align 16
  %10 = alloca i8, align 1
  %11 = bitcast [100 x [20 x i8]]* %9 to i8*
  call void @llvm.memset.p0i8.i64(i8* align 16 %11, i8 0, i64 2000, i1 false)
  store i32 0, i32* %2, align 4
  store i32 0, i32* %3, align 4
  br label %12

12:                                               ; preds = %34, %0
  %13 = call i32 @getchar()
  %14 = trunc i32 %13 to i8
  store i8 %14, i8* %10, align 1
  %15 = sext i8 %14 to i32
  %16 = icmp ne i32 %15, 10
  br i1 %16, label %17, label %35

17:                                               ; preds = %12
  %18 = load i8, i8* %10, align 1
  %19 = sext i8 %18 to i32
  %20 = icmp ne i32 %19, 32
  br i1 %20, label %21, label %31

21:                                               ; preds = %17
  %22 = load i8, i8* %10, align 1
  %23 = load i32, i32* %2, align 4
  %24 = sext i32 %23 to i64
  %25 = getelementptr inbounds [100 x [20 x i8]], [100 x [20 x i8]]* %9, i64 0, i64 %24
  %26 = load i32, i32* %3, align 4
  %27 = sext i32 %26 to i64
  %28 = getelementptr inbounds [20 x i8], [20 x i8]* %25, i64 0, i64 %27
  store i8 %22, i8* %28, align 1
  %29 = load i32, i32* %3, align 4
  %30 = add nsw i32 %29, 1
  store i32 %30, i32* %3, align 4
  br label %34

31:                                               ; preds = %17
  %32 = load i32, i32* %2, align 4
  %33 = add nsw i32 %32, 1
  store i32 %33, i32* %2, align 4
  store i32 0, i32* %3, align 4
  br label %34

34:                                               ; preds = %31, %21
  br label %12

35:                                               ; preds = %12
  store i32 0, i32* %7, align 4
  store i32 100, i32* %8, align 4
  store i32 0, i32* %1, align 4
  br label %36

36:                                               ; preds = %61, %35
  %37 = load i32, i32* %1, align 4
  %38 = load i32, i32* %2, align 4
  %39 = icmp sle i32 %37, %38
  br i1 %39, label %40, label %64

40:                                               ; preds = %36
  %41 = load i32, i32* %1, align 4
  %42 = sext i32 %41 to i64
  %43 = getelementptr inbounds [100 x [20 x i8]], [100 x [20 x i8]]* %9, i64 0, i64 %42
  %44 = getelementptr inbounds [20 x i8], [20 x i8]* %43, i64 0, i64 0
  %45 = call i64 @strlen(i8* %44) #4
  %46 = trunc i64 %45 to i32
  store i32 %46, i32* %6, align 4
  %47 = load i32, i32* %6, align 4
  %48 = load i32, i32* %7, align 4
  %49 = icmp sgt i32 %47, %48
  br i1 %49, label %50, label %53

50:                                               ; preds = %40
  %51 = load i32, i32* %1, align 4
  store i32 %51, i32* %4, align 4
  %52 = load i32, i32* %6, align 4
  store i32 %52, i32* %7, align 4
  br label %53

53:                                               ; preds = %50, %40
  %54 = load i32, i32* %6, align 4
  %55 = load i32, i32* %8, align 4
  %56 = icmp slt i32 %54, %55
  br i1 %56, label %57, label %60

57:                                               ; preds = %53
  %58 = load i32, i32* %1, align 4
  store i32 %58, i32* %5, align 4
  %59 = load i32, i32* %6, align 4
  store i32 %59, i32* %8, align 4
  br label %60

60:                                               ; preds = %57, %53
  br label %61

61:                                               ; preds = %60
  %62 = load i32, i32* %1, align 4
  %63 = add nsw i32 %62, 1
  store i32 %63, i32* %1, align 4
  br label %36

64:                                               ; preds = %36
  %65 = load i32, i32* %4, align 4
  %66 = sext i32 %65 to i64
  %67 = getelementptr inbounds [100 x [20 x i8]], [100 x [20 x i8]]* %9, i64 0, i64 %66
  %68 = getelementptr inbounds [20 x i8], [20 x i8]* %67, i64 0, i64 0
  %69 = call i32 (i8*, ...) @printf(i8* getelementptr inbounds ([4 x i8], [4 x i8]* @.str, i64 0, i64 0), i8* %68)
  %70 = load i32, i32* %5, align 4
  %71 = sext i32 %70 to i64
  %72 = getelementptr inbounds [100 x [20 x i8]], [100 x [20 x i8]]* %9, i64 0, i64 %71
  %73 = getelementptr inbounds [20 x i8], [20 x i8]* %72, i64 0, i64 0
  %74 = call i32 (i8*, ...) @printf(i8* getelementptr inbounds ([4 x i8], [4 x i8]* @.str, i64 0, i64 0), i8* %73)
  ret void
}

; Function Attrs: argmemonly nounwind willreturn
declare void @llvm.memset.p0i8.i64(i8* nocapture writeonly, i8, i64, i1 immarg) #1

declare dso_local i32 @getchar() #2

; Function Attrs: nounwind readonly
declare dso_local i64 @strlen(i8*) #3

declare dso_local i32 @printf(i8*, ...) #2


!llvm.module.flags = !{!0}
!llvm.ident = !{!1}

!0 = !{i32 1, !"wchar_size", i32 4}
!1 = !{!"clang version 10.0.0-4ubuntu1 "}
